target datalayout = "e-m:e-p270:32:32-p271:32:32-p272:64:64-i64:64-i128:128-f80:128-n8:16:32:64-S128"
target triple = "x86_64-pc-linux-gnu"

%struct.__storeu_ps = type { <4 x float> }
%struct.__loadu_si128 = type { <2 x i64> }

; Function Attrs: alwaysinline nounwind uwtable
define available_externally void @_mm_storeu_ps(ptr noundef %0, <4 x float> noundef %1) #2 {
  %3 = alloca ptr, align 8
  %4 = alloca <4 x float>, align 16
  store ptr %0, ptr %3, align 8, !tbaa !21
  store <4 x float> %1, ptr %4, align 16, !tbaa !12
  %5 = load <4 x float>, ptr %4, align 16, !tbaa !12
  %6 = load ptr, ptr %3, align 8, !tbaa !21
  %7 = getelementptr inbounds nuw %struct.__storeu_ps, ptr %6, i32 0, i32 0
  store <4 x float> %5, ptr %7, align 1, !tbaa !12
  ret void
}

; Function Attrs: alwaysinline nounwind uwtable
define available_externally <4 x float> @_mm_castsi128_ps(<2 x i64> noundef %0) #2 {
  %2 = alloca <2 x i64>, align 16
  store <2 x i64> %0, ptr %2, align 16, !tbaa !12
  %3 = load <2 x i64>, ptr %2, align 16, !tbaa !12
  %4 = bitcast <2 x i64> %3 to <4 x float>
  ret <4 x float> %4
}

; Function Attrs: alwaysinline nounwind uwtable
define available_externally <2 x i64> @_mm_castps_si128(<4 x float> noundef %0) #2 {
  %2 = alloca <4 x float>, align 16
  store <4 x float> %0, ptr %2, align 16, !tbaa !12
  %3 = load <4 x float>, ptr %2, align 16, !tbaa !12
  %4 = bitcast <4 x float> %3 to <2 x i64>
  ret <2 x i64> %4
}

; Function Attrs: alwaysinline nounwind uwtable
define available_externally <4 x float> @_mm_mul_ps(<4 x float> noundef %0, <4 x float> noundef %1) #2 {
  %3 = alloca <4 x float>, align 16
  %4 = alloca <4 x float>, align 16
  store <4 x float> %0, ptr %3, align 16, !tbaa !12
  store <4 x float> %1, ptr %4, align 16, !tbaa !12
  %5 = load <4 x float>, ptr %3, align 16, !tbaa !12
  %6 = load <4 x float>, ptr %4, align 16, !tbaa !12
  %7 = fmul <4 x float> %5, %6
  ret <4 x float> %7
}

; Function Attrs: alwaysinline nounwind uwtable
define available_externally <4 x float> @_mm_cvtepi32_ps(<2 x i64> noundef %0) #2 {
  %2 = alloca <2 x i64>, align 16
  store <2 x i64> %0, ptr %2, align 16, !tbaa !12
  %3 = load <2 x i64>, ptr %2, align 16, !tbaa !12
  %4 = bitcast <2 x i64> %3 to <4 x i32>
  %5 = sitofp <4 x i32> %4 to <4 x float>
  ret <4 x float> %5
}

; Function Attrs: alwaysinline nounwind uwtable
define available_externally <2 x i64> @_mm_unpackhi_epi16(<2 x i64> noundef %0, <2 x i64> noundef %1) #2 {
  %3 = alloca <2 x i64>, align 16
  %4 = alloca <2 x i64>, align 16
  store <2 x i64> %0, ptr %3, align 16, !tbaa !12
  store <2 x i64> %1, ptr %4, align 16, !tbaa !12
  %5 = load <2 x i64>, ptr %3, align 16, !tbaa !12
  %6 = bitcast <2 x i64> %5 to <8 x i16>
  %7 = load <2 x i64>, ptr %4, align 16, !tbaa !12
  %8 = bitcast <2 x i64> %7 to <8 x i16>
  %9 = shufflevector <8 x i16> %6, <8 x i16> %8, <8 x i32> <i32 4, i32 12, i32 5, i32 13, i32 6, i32 14, i32 7, i32 15>
  %10 = bitcast <8 x i16> %9 to <2 x i64>
  ret <2 x i64> %10
}

; Function Attrs: alwaysinline nounwind uwtable
define available_externally <2 x i64> @_mm_unpacklo_epi16(<2 x i64> noundef %0, <2 x i64> noundef %1) #2 {
  %3 = alloca <2 x i64>, align 16
  %4 = alloca <2 x i64>, align 16
  store <2 x i64> %0, ptr %3, align 16, !tbaa !12
  store <2 x i64> %1, ptr %4, align 16, !tbaa !12
  %5 = load <2 x i64>, ptr %3, align 16, !tbaa !12
  %6 = bitcast <2 x i64> %5 to <8 x i16>
  %7 = load <2 x i64>, ptr %4, align 16, !tbaa !12
  %8 = bitcast <2 x i64> %7 to <8 x i16>
  %9 = shufflevector <8 x i16> %6, <8 x i16> %8, <8 x i32> <i32 0, i32 8, i32 1, i32 9, i32 2, i32 10, i32 3, i32 11>
  %10 = bitcast <8 x i16> %9 to <2 x i64>
  ret <2 x i64> %10
}

; Function Attrs: alwaysinline nounwind uwtable
define available_externally <2 x i64> @_mm_setzero_si128() #2 {
  %1 = alloca <2 x i64>, align 16
  store <2 x i64> zeroinitializer, ptr %1, align 16, !tbaa !12
  %2 = load <2 x i64>, ptr %1, align 16, !tbaa !12
  ret <2 x i64> %2
}

; Function Attrs: alwaysinline nounwind uwtable
define available_externally <2 x i64> @_mm_loadu_si128(ptr noundef %0) #2 {
  %2 = alloca ptr, align 8
  store ptr %0, ptr %2, align 8, !tbaa !3
  %3 = load ptr, ptr %2, align 8, !tbaa !3
  %4 = getelementptr inbounds nuw %struct.__loadu_si128, ptr %3, i32 0, i32 0
  %5 = load <2 x i64>, ptr %4, align 1, !tbaa !12
  ret <2 x i64> %5
}

; Function Attrs: nounwind uwtable
define void @stbir__decode_uint16_linear_scaled_BGRA(ptr noundef %0, i32 noundef %1, ptr noundef %2) #0 {
  %4 = alloca ptr, align 8
  %5 = alloca i32, align 4
  %6 = alloca ptr, align 8
  %7 = alloca ptr, align 8
  %8 = alloca ptr, align 8
  %9 = alloca ptr, align 8
  %10 = alloca ptr, align 8
  %11 = alloca <2 x i64>, align 16
  %12 = alloca <2 x i64>, align 16
  %13 = alloca <2 x i64>, align 16
  %14 = alloca <4 x float>, align 16
  %15 = alloca <4 x float>, align 16
  %16 = alloca <2 x i64>, align 16
  %17 = alloca i32, align 4
  store ptr %0, ptr %4, align 8, !tbaa !21
  store i32 %1, ptr %5, align 4, !tbaa !26
  store ptr %2, ptr %6, align 8, !tbaa !3
  call void @llvm.lifetime.start.p0(i64 8, ptr %7) #12
  %18 = load ptr, ptr %4, align 8, !tbaa !21
  store ptr %18, ptr %7, align 8, !tbaa !21
  call void @llvm.lifetime.start.p0(i64 8, ptr %8) #12
  %19 = load ptr, ptr %7, align 8, !tbaa !21
  %20 = load i32, ptr %5, align 4, !tbaa !26
  %21 = sext i32 %20 to i64
  %22 = getelementptr inbounds float, ptr %19, i64 %21
  store ptr %22, ptr %8, align 8, !tbaa !21
  call void @llvm.lifetime.start.p0(i64 8, ptr %9) #12
  %23 = load ptr, ptr %6, align 8, !tbaa !3
  store ptr %23, ptr %9, align 8, !tbaa !191
  call void @llvm.lifetime.start.p0(i64 8, ptr %10) #12
  %24 = load ptr, ptr %9, align 8, !tbaa !191
  %25 = load i32, ptr %5, align 4, !tbaa !26
  %26 = sext i32 %25 to i64
  %27 = getelementptr inbounds i16, ptr %24, i64 %26
  %28 = getelementptr inbounds i16, ptr %27, i64 -8
  store ptr %28, ptr %10, align 8, !tbaa !191
  %29 = load i32, ptr %5, align 4, !tbaa !26
  %30 = icmp sge i32 %29, 8
  br i1 %30, label %31, label %92

31:                                               ; preds = %3
  %32 = load ptr, ptr %8, align 8, !tbaa !21
  %33 = getelementptr inbounds float, ptr %32, i64 -8
  store ptr %33, ptr %8, align 8, !tbaa !21
  br label %34

34:                                               ; preds = %90, %88, %31
  call void @llvm.lifetime.start.p0(i64 16, ptr %11) #12
  call void @llvm.lifetime.start.p0(i64 16, ptr %12) #12
  call void @llvm.lifetime.start.p0(i64 16, ptr %13) #12
  call void @llvm.lifetime.start.p0(i64 16, ptr %14) #12
  call void @llvm.lifetime.start.p0(i64 16, ptr %15) #12
  %35 = load ptr, ptr %7, align 8, !tbaa !21
  call void asm sideeffect "", "r,~{dirflag},~{fpsr},~{flags}"(ptr %35) #12, !srcloc !260
  %36 = load ptr, ptr %9, align 8, !tbaa !191
  %37 = call <2 x i64> @_mm_loadu_si128(ptr noundef %36)
  store <2 x i64> %37, ptr %11, align 16, !tbaa !12
  call void @llvm.lifetime.start.p0(i64 16, ptr %16) #12
  %38 = call <2 x i64> @_mm_setzero_si128()
  store <2 x i64> %38, ptr %16, align 16, !tbaa !12
  %39 = load <2 x i64>, ptr %11, align 16, !tbaa !12
  %40 = load <2 x i64>, ptr %16, align 16, !tbaa !12
  %41 = call <2 x i64> @_mm_unpacklo_epi16(<2 x i64> noundef %39, <2 x i64> noundef %40)
  store <2 x i64> %41, ptr %12, align 16, !tbaa !12
  %42 = load <2 x i64>, ptr %11, align 16, !tbaa !12
  %43 = load <2 x i64>, ptr %16, align 16, !tbaa !12
  %44 = call <2 x i64> @_mm_unpackhi_epi16(<2 x i64> noundef %42, <2 x i64> noundef %43)
  store <2 x i64> %44, ptr %13, align 16, !tbaa !12
  call void @llvm.lifetime.end.p0(i64 16, ptr %16) #12
  %45 = load <2 x i64>, ptr %12, align 16, !tbaa !12
  %46 = call <4 x float> @_mm_cvtepi32_ps(<2 x i64> noundef %45)
  store <4 x float> %46, ptr %14, align 16, !tbaa !12
  %47 = load <2 x i64>, ptr %13, align 16, !tbaa !12
  %48 = call <4 x float> @_mm_cvtepi32_ps(<2 x i64> noundef %47)
  store <4 x float> %48, ptr %15, align 16, !tbaa !12
  %49 = load <4 x float>, ptr %14, align 16, !tbaa !12
  %50 = call <4 x float> @_mm_mul_ps(<4 x float> noundef %49, <4 x float> noundef splat (float 0x3EF0001000000000))
  store <4 x float> %50, ptr %14, align 16, !tbaa !12
  %51 = load <4 x float>, ptr %15, align 16, !tbaa !12
  %52 = call <4 x float> @_mm_mul_ps(<4 x float> noundef %51, <4 x float> noundef splat (float 0x3EF0001000000000))
  store <4 x float> %52, ptr %15, align 16, !tbaa !12
  %53 = load <4 x float>, ptr %14, align 16, !tbaa !12
  %54 = call <2 x i64> @_mm_castps_si128(<4 x float> noundef %53)
  %55 = bitcast <2 x i64> %54 to <4 x i32>
  %56 = shufflevector <4 x i32> %55, <4 x i32> poison, <4 x i32> <i32 2, i32 1, i32 0, i32 3>
  %57 = bitcast <4 x i32> %56 to <2 x i64>
  %58 = call <4 x float> @_mm_castsi128_ps(<2 x i64> noundef %57)
  store <4 x float> %58, ptr %14, align 16, !tbaa !12
  %59 = load <4 x float>, ptr %15, align 16, !tbaa !12
  %60 = call <2 x i64> @_mm_castps_si128(<4 x float> noundef %59)
  %61 = bitcast <2 x i64> %60 to <4 x i32>
  %62 = shufflevector <4 x i32> %61, <4 x i32> poison, <4 x i32> <i32 2, i32 1, i32 0, i32 3>
  %63 = bitcast <4 x i32> %62 to <2 x i64>
  %64 = call <4 x float> @_mm_castsi128_ps(<2 x i64> noundef %63)
  store <4 x float> %64, ptr %15, align 16, !tbaa !12
  %65 = load ptr, ptr %7, align 8, !tbaa !21
  %66 = getelementptr inbounds float, ptr %65, i64 0
  %67 = load <4 x float>, ptr %14, align 16, !tbaa !12
  call void @_mm_storeu_ps(ptr noundef %66, <4 x float> noundef %67)
  %68 = load ptr, ptr %7, align 8, !tbaa !21
  %69 = getelementptr inbounds float, ptr %68, i64 4
  %70 = load <4 x float>, ptr %15, align 16, !tbaa !12
  call void @_mm_storeu_ps(ptr noundef %69, <4 x float> noundef %70)
  %71 = load ptr, ptr %7, align 8, !tbaa !21
  %72 = getelementptr inbounds float, ptr %71, i64 8
  store ptr %72, ptr %7, align 8, !tbaa !21
  %73 = load ptr, ptr %9, align 8, !tbaa !191
  %74 = getelementptr inbounds i16, ptr %73, i64 8
  store ptr %74, ptr %9, align 8, !tbaa !191
  %75 = load ptr, ptr %7, align 8, !tbaa !21
  %76 = load ptr, ptr %8, align 8, !tbaa !21
  %77 = icmp ule ptr %75, %76
  br i1 %77, label %78, label %79

78:                                               ; preds = %34
  store i32 3, ptr %17, align 4
  br label %88, !llvm.loop !261

79:                                               ; preds = %34
  %80 = load ptr, ptr %7, align 8, !tbaa !21
  %81 = load ptr, ptr %8, align 8, !tbaa !21
  %82 = getelementptr inbounds float, ptr %81, i64 8
  %83 = icmp eq ptr %80, %82
  br i1 %83, label %84, label %85

84:                                               ; preds = %79
  store i32 2, ptr %17, align 4
  br label %88

85:                                               ; preds = %79
  %86 = load ptr, ptr %8, align 8, !tbaa !21
  store ptr %86, ptr %7, align 8, !tbaa !21
  %87 = load ptr, ptr %10, align 8, !tbaa !191
  store ptr %87, ptr %9, align 8, !tbaa !191
  store i32 0, ptr %17, align 4
  br label %88

88:                                               ; preds = %85, %84, %78
  call void @llvm.lifetime.end.p0(i64 16, ptr %15) #12
  call void @llvm.lifetime.end.p0(i64 16, ptr %14) #12
  call void @llvm.lifetime.end.p0(i64 16, ptr %13) #12
  call void @llvm.lifetime.end.p0(i64 16, ptr %12) #12
  call void @llvm.lifetime.end.p0(i64 16, ptr %11) #12
  %89 = load i32, ptr %17, align 4
  switch i32 %89, label %139 [
    i32 0, label %90
    i32 3, label %34
    i32 2, label %91
  ]

90:                                               ; preds = %88
  br label %34, !llvm.loop !261

91:                                               ; preds = %88
  store i32 1, ptr %17, align 4
  br label %136

92:                                               ; preds = %3
  %93 = load ptr, ptr %7, align 8, !tbaa !21
  %94 = getelementptr inbounds float, ptr %93, i64 4
  store ptr %94, ptr %7, align 8, !tbaa !21
  br label %95

95:                                               ; preds = %99, %92
  %96 = load ptr, ptr %7, align 8, !tbaa !21
  %97 = load ptr, ptr %8, align 8, !tbaa !21
  %98 = icmp ule ptr %96, %97
  br i1 %98, label %99, label %133

99:                                               ; preds = %95
  %100 = load ptr, ptr %7, align 8, !tbaa !21
  call void asm sideeffect "", "r,~{dirflag},~{fpsr},~{flags}"(ptr %100) #12, !srcloc !262
  %101 = load ptr, ptr %9, align 8, !tbaa !191
  %102 = getelementptr inbounds i16, ptr %101, i64 2
  %103 = load i16, ptr %102, align 2, !tbaa !196
  %104 = uitofp i16 %103 to float
  %105 = fmul float %104, 0x3EF0001000000000
  %106 = load ptr, ptr %7, align 8, !tbaa !21
  %107 = getelementptr inbounds float, ptr %106, i64 -4
  store float %105, ptr %107, align 4, !tbaa !29
  %108 = load ptr, ptr %9, align 8, !tbaa !191
  %109 = getelementptr inbounds i16, ptr %108, i64 1
  %110 = load i16, ptr %109, align 2, !tbaa !196
  %111 = uitofp i16 %110 to float
  %112 = fmul float %111, 0x3EF0001000000000
  %113 = load ptr, ptr %7, align 8, !tbaa !21
  %114 = getelementptr inbounds float, ptr %113, i64 -3
  store float %112, ptr %114, align 4, !tbaa !29
  %115 = load ptr, ptr %9, align 8, !tbaa !191
  %116 = getelementptr inbounds i16, ptr %115, i64 0
  %117 = load i16, ptr %116, align 2, !tbaa !196
  %118 = uitofp i16 %117 to float
  %119 = fmul float %118, 0x3EF0001000000000
  %120 = load ptr, ptr %7, align 8, !tbaa !21
  %121 = getelementptr inbounds float, ptr %120, i64 -2
  store float %119, ptr %121, align 4, !tbaa !29
  %122 = load ptr, ptr %9, align 8, !tbaa !191
  %123 = getelementptr inbounds i16, ptr %122, i64 3
  %124 = load i16, ptr %123, align 2, !tbaa !196
  %125 = uitofp i16 %124 to float
  %126 = fmul float %125, 0x3EF0001000000000
  %127 = load ptr, ptr %7, align 8, !tbaa !21
  %128 = getelementptr inbounds float, ptr %127, i64 -1
  store float %126, ptr %128, align 4, !tbaa !29
  %129 = load ptr, ptr %7, align 8, !tbaa !21
  %130 = getelementptr inbounds float, ptr %129, i64 4
  store ptr %130, ptr %7, align 8, !tbaa !21
  %131 = load ptr, ptr %9, align 8, !tbaa !191
  %132 = getelementptr inbounds i16, ptr %131, i64 4
  store ptr %132, ptr %9, align 8, !tbaa !191
  br label %95, !llvm.loop !263

133:                                              ; preds = %95
  %134 = load ptr, ptr %7, align 8, !tbaa !21
  %135 = getelementptr inbounds float, ptr %134, i64 -4
  store ptr %135, ptr %7, align 8, !tbaa !21
  store i32 0, ptr %17, align 4
  br label %136

136:                                              ; preds = %133, %91
  call void @llvm.lifetime.end.p0(i64 8, ptr %10) #12
  call void @llvm.lifetime.end.p0(i64 8, ptr %9) #12
  call void @llvm.lifetime.end.p0(i64 8, ptr %8) #12
  call void @llvm.lifetime.end.p0(i64 8, ptr %7) #12
  %137 = load i32, ptr %17, align 4
  switch i32 %137, label %139 [
    i32 0, label %138
    i32 1, label %138
  ]

138:                                              ; preds = %136, %136
  ret void

139:                                              ; preds = %136, %88
  unreachable
}