; Function Attrs: nounwind uwtable
define void @stbir__decode_uint16_linear_scaled_BGRA(ptr noundef %0, i32 noundef %1, ptr noundef readonly captures(none) %2) #0 {
  %4 = sext i32 %1 to i64
  %.idx = shl nsw i64 %4, 2
  %5 = getelementptr inbounds i8, ptr %0, i64 %.idx
  %6 = getelementptr inbounds i16, ptr %2, i64 %4
  %7 = getelementptr inbounds i8, ptr %6, i64 -16
  %8 = icmp sgt i32 %1, 7
  br i1 %8, label %9, label %.preheader

.preheader:                                       ; preds = %3
  %.not59 = icmp slt i32 %1, 4
  br i1 %.not59, label %.loopexit, label %.lr.ph.preheader

.lr.ph.preheader:                                 ; preds = %.preheader
  %.258 = getelementptr inbounds nuw i8, ptr %0, i64 16
  br label %.lr.ph

9:                                                ; preds = %3
  %10 = getelementptr inbounds i8, ptr %5, i64 -32
  br label %11

11:                                               ; preds = %11, %9
  %.048 = phi ptr [ %2, %9 ], [ %.149, %11 ]
  %.047 = phi ptr [ %0, %9 ], [ %.1, %11 ]
  tail call void asm sideeffect "", "r,~{dirflag},~{fpsr},~{flags}"(ptr %.047) #24, !srcloc !226
  %12 = load <8 x i16>, ptr %.048, align 1, !tbaa !4
  %13 = shufflevector <8 x i16> %12, <8 x i16> <i16 0, i16 0, i16 0, i16 0, i16 poison, i16 poison, i16 poison, i16 poison>, <8 x i32> <i32 0, i32 8, i32 1, i32 9, i32 2, i32 10, i32 3, i32 11>
  %14 = shufflevector <8 x i16> %12, <8 x i16> <i16 poison, i16 poison, i16 poison, i16 poison, i16 0, i16 0, i16 0, i16 0>, <8 x i32> <i32 4, i32 12, i32 5, i32 13, i32 6, i32 14, i32 7, i32 15>
  %15 = bitcast <8 x i16> %13 to <4 x i32>
  %16 = uitofp nneg <4 x i32> %15 to <4 x float>
  %17 = bitcast <8 x i16> %14 to <4 x i32>
  %18 = uitofp nneg <4 x i32> %17 to <4 x float>
  %19 = fmul <4 x float> %16, splat (float 0x3EF0001000000000)
  %20 = fmul <4 x float> %18, splat (float 0x3EF0001000000000)
  %21 = shufflevector <4 x float> %19, <4 x float> poison, <4 x i32> <i32 2, i32 1, i32 0, i32 3>
  %22 = shufflevector <4 x float> %20, <4 x float> poison, <4 x i32> <i32 2, i32 1, i32 0, i32 3>
  store <4 x float> %21, ptr %.047, align 1, !tbaa !4
  %23 = getelementptr inbounds nuw i8, ptr %.047, i64 16
  store <4 x float> %22, ptr %23, align 1, !tbaa !4
  %24 = getelementptr inbounds nuw i8, ptr %.047, i64 32
  %25 = getelementptr inbounds nuw i8, ptr %.048, i64 16
  %.not54 = icmp ugt ptr %24, %10
  %26 = icmp eq ptr %24, %5
  %. = select i1 %26, ptr %25, ptr %7
  %.55 = select i1 %26, ptr %24, ptr %10
  %.149 = select i1 %.not54, ptr %., ptr %25
  %.1 = select i1 %.not54, ptr %.55, ptr %24
  br i1 %26, label %.loopexit, label %11

.lr.ph:                                           ; preds = %.lr.ph.preheader, %.lr.ph
  %.262 = phi ptr [ %.2, %.lr.ph ], [ %.258, %.lr.ph.preheader ]
  %.pn61 = phi ptr [ %.262, %.lr.ph ], [ %0, %.lr.ph.preheader ]
  %.25060 = phi ptr [ %45, %.lr.ph ], [ %2, %.lr.ph.preheader ]
  tail call void asm sideeffect "", "r,~{dirflag},~{fpsr},~{flags}"(ptr nonnull %.262) #24, !srcloc !227
  %27 = getelementptr inbounds nuw i8, ptr %.25060, i64 4
  %28 = load i16, ptr %27, align 2, !tbaa !174
  %29 = uitofp i16 %28 to float
  %30 = fmul float %29, 0x3EF0001000000000
  store float %30, ptr %.pn61, align 4, !tbaa !50
  %31 = getelementptr inbounds nuw i8, ptr %.25060, i64 2
  %32 = load i16, ptr %31, align 2, !tbaa !174
  %33 = uitofp i16 %32 to float
  %34 = fmul float %33, 0x3EF0001000000000
  %35 = getelementptr inbounds nuw i8, ptr %.pn61, i64 4
  store float %34, ptr %35, align 4, !tbaa !50
  %36 = load i16, ptr %.25060, align 2, !tbaa !174
  %37 = uitofp i16 %36 to float
  %38 = fmul float %37, 0x3EF0001000000000
  %39 = getelementptr inbounds nuw i8, ptr %.pn61, i64 8
  store float %38, ptr %39, align 4, !tbaa !50
  %40 = getelementptr inbounds nuw i8, ptr %.25060, i64 6
  %41 = load i16, ptr %40, align 2, !tbaa !174
  %42 = uitofp i16 %41 to float
  %43 = fmul float %42, 0x3EF0001000000000
  %44 = getelementptr inbounds nuw i8, ptr %.pn61, i64 12
  store float %43, ptr %44, align 4, !tbaa !50
  %45 = getelementptr inbounds nuw i8, ptr %.25060, i64 8
  %.2 = getelementptr inbounds nuw i8, ptr %.262, i64 16
  %.not = icmp ugt ptr %.2, %5
  br i1 %.not, label %.loopexit, label %.lr.ph, !llvm.loop !228

.loopexit:                                        ; preds = %.lr.ph, %11, %.preheader
  ret void
}